target datalayout = "e-m:e-p270:32:32-p271:32:32-p272:64:64-i64:64-i128:128-f80:128-n8:16:32:64-S128"
target triple = "x86_64-pc-linux-gnu"

; Function Attrs: nounwind uwtable
define internal void @cfl_luma_subsampling_444_lbd_c(ptr noundef %0, i32 noundef %1, ptr noundef %2, i32 noundef %3, i32 noundef %4) #0 {
  %6 = alloca ptr, align 8
  %7 = alloca i32, align 4
  %8 = alloca ptr, align 8
  %9 = alloca i32, align 4
  %10 = alloca i32, align 4
  %11 = alloca i32, align 4
  %12 = alloca i32, align 4
  store ptr %0, ptr %6, align 8
  store i32 %1, ptr %7, align 4
  store ptr %2, ptr %8, align 8
  store i32 %3, ptr %9, align 4
  store i32 %4, ptr %10, align 4
  store i32 0, ptr %11, align 4
  br label %13

13:                                               ; preds = %45, %5
  %14 = load i32, ptr %11, align 4
  %15 = load i32, ptr %10, align 4
  %16 = icmp slt i32 %14, %15
  br i1 %16, label %17, label %48

17:                                               ; preds = %13
  store i32 0, ptr %12, align 4
  br label %18

18:                                               ; preds = %35, %17
  %19 = load i32, ptr %12, align 4
  %20 = load i32, ptr %9, align 4
  %21 = icmp slt i32 %19, %20
  br i1 %21, label %22, label %38

22:                                               ; preds = %18
  %23 = load ptr, ptr %6, align 8
  %24 = load i32, ptr %12, align 4
  %25 = sext i32 %24 to i64
  %26 = getelementptr inbounds i8, ptr %23, i64 %25
  %27 = load i8, ptr %26, align 1
  %28 = zext i8 %27 to i32
  %29 = shl i32 %28, 3
  %30 = trunc i32 %29 to i16
  %31 = load ptr, ptr %8, align 8
  %32 = load i32, ptr %12, align 4
  %33 = sext i32 %32 to i64
  %34 = getelementptr inbounds i16, ptr %31, i64 %33
  store i16 %30, ptr %34, align 2
  br label %35

35:                                               ; preds = %22
  %36 = load i32, ptr %12, align 4
  %37 = add nsw i32 %36, 1
  store i32 %37, ptr %12, align 4
  br label %18, !llvm.loop !19

38:                                               ; preds = %18
  %39 = load i32, ptr %7, align 4
  %40 = load ptr, ptr %6, align 8
  %41 = sext i32 %39 to i64
  %42 = getelementptr inbounds i8, ptr %40, i64 %41
  store ptr %42, ptr %6, align 8
  %43 = load ptr, ptr %8, align 8
  %44 = getelementptr inbounds i16, ptr %43, i64 32
  store ptr %44, ptr %8, align 8
  br label %45

45:                                               ; preds = %38
  %46 = load i32, ptr %11, align 4
  %47 = add nsw i32 %46, 1
  store i32 %47, ptr %11, align 4
  br label %13, !llvm.loop !20

48:                                               ; preds = %13
  ret void
}

; Function Attrs: nounwind uwtable
define hidden void @cfl_subsample_lbd_444_8x16_c(ptr noundef %0, i32 noundef %1, ptr noundef %2) #0 {
  %4 = alloca ptr, align 8
  %5 = alloca i32, align 4
  %6 = alloca ptr, align 8
  store ptr %0, ptr %4, align 8
  store i32 %1, ptr %5, align 4
  store ptr %2, ptr %6, align 8
  %7 = load ptr, ptr %4, align 8
  %8 = load i32, ptr %5, align 4
  %9 = load ptr, ptr %6, align 8
  call void @cfl_luma_subsampling_444_lbd_c(ptr noundef %7, i32 noundef %8, ptr noundef %9, i32 noundef 8, i32 noundef 16)
  ret void
}